
easy_bench1.elf:     format de fichier elf32-littleriscv


Déassemblage de la section .text :

00000000 <beq_test-0xd4>:
   0:	00528293          	add	t0,t0,5
   4:	00a30313          	add	t1,t1,10
   8:	006280b3          	add	ra,t0,t1
   c:	00102023          	sw	ra,0(zero) # 0 <beq_test-0xd4>
  10:	405300b3          	sub	ra,t1,t0
  14:	00102223          	sw	ra,4(zero) # 4 <beq_test-0xd0>
  18:	0062c0b3          	xor	ra,t0,t1
  1c:	00102423          	sw	ra,8(zero) # 8 <beq_test-0xcc>
  20:	0062e0b3          	or	ra,t0,t1
  24:	00102623          	sw	ra,12(zero) # c <beq_test-0xc8>
  28:	0062f0b3          	and	ra,t0,t1
  2c:	00102823          	sw	ra,16(zero) # 10 <beq_test-0xc4>
  30:	006290b3          	sll	ra,t0,t1
  34:	00102a23          	sw	ra,20(zero) # 14 <beq_test-0xc0>
  38:	0062d0b3          	srl	ra,t0,t1
  3c:	00102c23          	sw	ra,24(zero) # 18 <beq_test-0xbc>
  40:	4062d0b3          	sra	ra,t0,t1
  44:	00102e23          	sw	ra,28(zero) # 1c <beq_test-0xb8>
  48:	0062a0b3          	slt	ra,t0,t1
  4c:	02102023          	sw	ra,32(zero) # 20 <beq_test-0xb4>
  50:	0062b0b3          	sltu	ra,t0,t1
  54:	02102223          	sw	ra,36(zero) # 24 <beq_test-0xb0>
  58:	00500093          	li	ra,5
  5c:	02102423          	sw	ra,40(zero) # 28 <beq_test-0xac>
  60:	00f2c093          	xor	ra,t0,15
  64:	02102623          	sw	ra,44(zero) # 2c <beq_test-0xa8>
  68:	00f2e093          	or	ra,t0,15
  6c:	02102823          	sw	ra,48(zero) # 30 <beq_test-0xa4>
  70:	00f2f093          	and	ra,t0,15
  74:	02102a23          	sw	ra,52(zero) # 34 <beq_test-0xa0>
  78:	00129093          	sll	ra,t0,0x1
  7c:	02102c23          	sw	ra,56(zero) # 38 <beq_test-0x9c>
  80:	0012d093          	srl	ra,t0,0x1
  84:	02102e23          	sw	ra,60(zero) # 3c <beq_test-0x98>
  88:	4012d093          	sra	ra,t0,0x1
  8c:	04102023          	sw	ra,64(zero) # 40 <beq_test-0x94>
  90:	fff2a093          	slti	ra,t0,-1
  94:	04102223          	sw	ra,68(zero) # 44 <beq_test-0x90>
  98:	fff2b093          	sltiu	ra,t0,-1
  9c:	04102423          	sw	ra,72(zero) # 48 <beq_test-0x8c>
  a0:	00000083          	lb	ra,0(zero) # 0 <beq_test-0xd4>
  a4:	04102623          	sw	ra,76(zero) # 4c <beq_test-0x88>
  a8:	00001083          	lh	ra,0(zero) # 0 <beq_test-0xd4>
  ac:	04102823          	sw	ra,80(zero) # 50 <beq_test-0x84>
  b0:	00002083          	lw	ra,0(zero) # 0 <beq_test-0xd4>
  b4:	04102a23          	sw	ra,84(zero) # 54 <beq_test-0x80>
  b8:	00004083          	lbu	ra,0(zero) # 0 <beq_test-0xd4>
  bc:	04102d23          	sw	ra,90(zero) # 5a <beq_test-0x7a>
  c0:	00005083          	lhu	ra,0(zero) # 0 <beq_test-0xd4>
  c4:	04102f23          	sw	ra,94(zero) # 5e <beq_test-0x76>
  c8:	06502123          	sw	t0,98(zero) # 62 <beq_test-0x72>
  cc:	06500323          	sb	t0,102(zero) # 66 <beq_test-0x6e>
  d0:	06501523          	sh	t0,106(zero) # 6a <beq_test-0x6a>

000000d4 <beq_test>:
  d4:	02528863          	beq	t0,t0,104 <beq_test_valid>
  d8:	0040006f          	j	dc <bne_test>

000000dc <bne_test>:
  dc:	02629863          	bne	t0,t1,10c <bne_test_valid>
  e0:	0040006f          	j	e4 <blt_test>

000000e4 <blt_test>:
  e4:	0262c863          	blt	t0,t1,114 <blt_test_valid>
  e8:	0040006f          	j	ec <bge_test>

000000ec <bge_test>:
  ec:	04530063          	beq	t1,t0,12c <bgeu_test_valid>
  f0:	0040006f          	j	f4 <bltu_test>

000000f4 <bltu_test>:
  f4:	02629863          	bne	t0,t1,124 <bltu_test_valid>
  f8:	0040006f          	j	fc <bgeu_test>

000000fc <bgeu_test>:
  fc:	02534863          	blt	t1,t0,12c <bgeu_test_valid>
 100:	0340006f          	j	134 <end>

00000104 <beq_test_valid>:
 104:	06502723          	sw	t0,110(zero) # 6e <beq_test-0x66>
 108:	fd5ff06f          	j	dc <bne_test>

0000010c <bne_test_valid>:
 10c:	06502923          	sw	t0,114(zero) # 72 <beq_test-0x62>
 110:	fd5ff06f          	j	e4 <blt_test>

00000114 <blt_test_valid>:
 114:	06502b23          	sw	t0,118(zero) # 76 <beq_test-0x5e>
 118:	fd5ff06f          	j	ec <bge_test>

0000011c <bge_test_valid>:
 11c:	06502d23          	sw	t0,122(zero) # 7a <beq_test-0x5a>
 120:	fd5ff06f          	j	f4 <bltu_test>

00000124 <bltu_test_valid>:
 124:	06502f23          	sw	t0,126(zero) # 7e <beq_test-0x56>
 128:	fd5ff06f          	j	fc <bgeu_test>

0000012c <bgeu_test_valid>:
 12c:	08502123          	sw	t0,130(zero) # 82 <beq_test-0x52>
 130:	0040006f          	j	134 <end>

00000134 <end>:
 134:	0000006f          	j	134 <end>
